; ModuleID = '43/1644.c'
source_filename = "43/1644.c"
target datalayout = "e-m:e-p270:32:32-p271:32:32-p272:64:64-i64:64-f80:128-n8:16:32:64-S128"
target triple = "x86_64-pc-linux-gnu"

@.str = private unnamed_addr constant [3 x i8] c"%d\00", align 1
@.str.1 = private unnamed_addr constant [7 x i8] c"%d %d\0A\00", align 1

; Function Attrs: noinline nounwind uwtable
define dso_local i32 @main() #0 {
  %1 = alloca i32, align 4
  %2 = alloca i32, align 4
  %3 = alloca i32, align 4
  %4 = alloca i32, align 4
  %5 = alloca i32, align 4
  %6 = alloca i32, align 4
  store i32 0, i32* %1, align 4
  %7 = call i32 (i8*, ...) @__isoc99_scanf(i8* getelementptr inbounds ([3 x i8], [3 x i8]* @.str, i64 0, i64 0), i32* %2)
  store i32 3, i32* %3, align 4
  br label %8

8:                                                ; preds = %31, %0
  %9 = load i32, i32* %3, align 4
  %10 = load i32, i32* %2, align 4
  %11 = sdiv i32 %10, 2
  %12 = icmp sle i32 %9, %11
  br i1 %12, label %13, label %34

13:                                               ; preds = %8
  %14 = load i32, i32* %2, align 4
  %15 = load i32, i32* %3, align 4
  %16 = sub nsw i32 %14, %15
  store i32 %16, i32* %4, align 4
  %17 = load i32, i32* %3, align 4
  %18 = call i32 @panduan(i32 %17)
  store i32 %18, i32* %5, align 4
  %19 = load i32, i32* %4, align 4
  %20 = call i32 @panduan(i32 %19)
  store i32 %20, i32* %6, align 4
  %21 = load i32, i32* %5, align 4
  %22 = icmp eq i32 %21, 1
  br i1 %22, label %23, label %30

23:                                               ; preds = %13
  %24 = load i32, i32* %6, align 4
  %25 = icmp eq i32 %24, 1
  br i1 %25, label %26, label %30

26:                                               ; preds = %23
  %27 = load i32, i32* %3, align 4
  %28 = load i32, i32* %4, align 4
  %29 = call i32 (i8*, ...) @printf(i8* getelementptr inbounds ([7 x i8], [7 x i8]* @.str.1, i64 0, i64 0), i32 %27, i32 %28)
  br label %30

30:                                               ; preds = %26, %23, %13
  br label %31

31:                                               ; preds = %30
  %32 = load i32, i32* %3, align 4
  %33 = add nsw i32 %32, 2
  store i32 %33, i32* %3, align 4
  br label %8

34:                                               ; preds = %8
  ret i32 0
}

declare dso_local i32 @__isoc99_scanf(i8*, ...) #1

; Function Attrs: noinline nounwind uwtable
define dso_local i32 @panduan(i32 %0) #0 {
  %2 = alloca i32, align 4
  %3 = alloca i32, align 4
  %4 = alloca i32, align 4
  store i32 %0, i32* %3, align 4
  store i32 3, i32* %4, align 4
  br label %5

5:                                                ; preds = %17, %1
  %6 = load i32, i32* %4, align 4
  %7 = load i32, i32* %3, align 4
  %8 = sdiv i32 %7, 2
  %9 = icmp slt i32 %6, %8
  br i1 %9, label %10, label %20

10:                                               ; preds = %5
  %11 = load i32, i32* %3, align 4
  %12 = load i32, i32* %4, align 4
  %13 = srem i32 %11, %12
  %14 = icmp eq i32 %13, 0
  br i1 %14, label %15, label %16

15:                                               ; preds = %10
  store i32 0, i32* %2, align 4
  br label %21

16:                                               ; preds = %10
  br label %17

17:                                               ; preds = %16
  %18 = load i32, i32* %4, align 4
  %19 = add nsw i32 %18, 1
  store i32 %19, i32* %4, align 4
  br label %5

20:                                               ; preds = %5
  store i32 1, i32* %2, align 4
  br label %21

21:                                               ; preds = %20, %15
  %22 = load i32, i32* %2, align 4
  ret i32 %22
}

declare dso_local i32 @printf(i8*, ...) #1


!llvm.module.flags = !{!0}
!llvm.ident = !{!1}

!0 = !{i32 1, !"wchar_size", i32 4}
!1 = !{!"clang version 10.0.0-4ubuntu1 "}
